; Function Attrs: mustprogress uwtable
define void @_ZN2cv3dnn14dnn4_v2024052120ConvolutionLayerInt86createERKNS1_11LayerParamsE(ptr dead_on_unwind noalias writable sret(%"struct.cv::Ptr") align 8 %0, ptr noundef nonnull align 8 dereferenceable(136) %1) local_unnamed_addr #3 align 2 personality ptr @__gxx_personality_v0 {
  %3 = tail call noalias noundef nonnull dereferenceable(600) ptr @_Znwm(i64 noundef 600) #22
  invoke void @_ZN2cv3dnn28BaseConvolutionLayerInt8ImplC2ERKNS0_14dnn4_v2024052111LayerParamsE(ptr noundef nonnull align 8 dereferenceable(342) %3, ptr noundef nonnull align 8 dereferenceable(136) %1)
          to label %4 unwind label %10

4:                                                ; preds = %2
  store ptr getelementptr inbounds inrange(-16, 280) (i8, ptr @_ZTVN2cv3dnn24ConvolutionLayerInt8ImplE, i64 16), ptr %3, align 8
  %5 = getelementptr inbounds i8, ptr %3, i64 344
  tail call void @_ZN2cv3MatC1Ev(ptr noundef nonnull align 8 dereferenceable(96) %5) #23
  %6 = getelementptr inbounds i8, ptr %3, i64 440
  %7 = getelementptr inbounds i8, ptr %3, i64 488
  tail call void @llvm.memset.p0.i64(ptr noundef nonnull align 8 dereferenceable(48) %6, i8 0, i64 48, i1 false)
  tail call void @_ZN2cv3MatC1Ev(ptr noundef nonnull align 8 dereferenceable(96) %7) #23
  %8 = getelementptr inbounds i8, ptr %3, i64 584
  tail call void @llvm.memset.p0.i64(ptr noundef nonnull align 8 dereferenceable(16) %8, i8 0, i64 16, i1 false)
  store ptr %3, ptr %0, align 8
  %9 = getelementptr inbounds i8, ptr %0, i64 8
  tail call void @_ZNSt14__shared_countILN9__gnu_cxx12_Lock_policyE2EEC2IPN2cv3dnn24ConvolutionLayerInt8ImplEEET_(ptr noundef nonnull align 8 dereferenceable(8) %9, ptr noundef nonnull %3)
  ret void

10:                                               ; preds = %2
  %11 = landingpad { ptr, i32 }
          cleanup
  tail call void @_ZdlPv(ptr noundef nonnull %3) #24
  resume { ptr, i32 } %11
}